target datalayout = "e-m:e-p270:32:32-p271:32:32-p272:64:64-i64:64-i128:128-f80:128-n8:16:32:64-S128"
target triple = "x86_64-pc-linux-gnu"

%struct.crypto_onetimeauth_poly1305_state = type { [256 x i8] }

; Function Attrs: alwaysinline nounwind
define internal ptr @memset.inline(ptr nonnull %0, i32 %1, i64 %2) #3 {
  %4 = alloca ptr, align 8
  %5 = alloca i32, align 4
  %6 = alloca i64, align 8
  store ptr %0, ptr %4, align 8
  store i32 %1, ptr %5, align 4
  store i64 %2, ptr %6, align 8
  %7 = load ptr, ptr %4, align 8
  %8 = load i32, ptr %5, align 4
  %9 = load i64, ptr %6, align 8
  %10 = load ptr, ptr %4, align 8
  %11 = call i64 @llvm.objectsize.i64.p0(ptr %10, i1 false, i1 true, i1 true)
  %12 = call ptr @__memset_chk(ptr noundef %7, i32 noundef %8, i64 noundef %9, i64 noundef %11) #7
  ret ptr %12
}

; Function Attrs: alwaysinline nounwind
define internal ptr @memmove.inline(ptr nonnull %0, ptr nonnull %1, i64 %2) #3 {
  %4 = alloca ptr, align 8
  %5 = alloca ptr, align 8
  %6 = alloca i64, align 8
  store ptr %0, ptr %4, align 8
  store ptr %1, ptr %5, align 8
  store i64 %2, ptr %6, align 8
  %7 = load ptr, ptr %4, align 8
  %8 = load ptr, ptr %5, align 8
  %9 = load i64, ptr %6, align 8
  %10 = load ptr, ptr %4, align 8
  %11 = call i64 @llvm.objectsize.i64.p0(ptr %10, i1 false, i1 true, i1 true)
  %12 = call ptr @__memmove_chk(ptr noundef %7, ptr noundef %8, i64 noundef %9, i64 noundef %11) #7
  ret ptr %12
}

; Function Attrs: nounwind ssp uwtable
define dso_local i32 @crypto_secretbox_xchacha20poly1305_detached(ptr noundef nonnull %0, ptr noundef nonnull %1, ptr noundef %2, i64 noundef %3, ptr noundef nonnull %4, ptr noundef nonnull %5) #0 {
  %7 = alloca ptr, align 8
  %8 = alloca ptr, align 8
  %9 = alloca ptr, align 8
  %10 = alloca i64, align 8
  %11 = alloca ptr, align 8
  %12 = alloca ptr, align 8
  %13 = alloca %struct.crypto_onetimeauth_poly1305_state, align 16
  %14 = alloca [64 x i8], align 16
  %15 = alloca [32 x i8], align 16
  %16 = alloca i64, align 8
  %17 = alloca i64, align 8
  store ptr %0, ptr %7, align 8
  store ptr %1, ptr %8, align 8
  store ptr %2, ptr %9, align 8
  store i64 %3, ptr %10, align 8
  store ptr %4, ptr %11, align 8
  store ptr %5, ptr %12, align 8
  call void @llvm.lifetime.start.p0(i64 256, ptr %13) #7
  call void @llvm.lifetime.start.p0(i64 64, ptr %14) #7
  call void @llvm.lifetime.start.p0(i64 32, ptr %15) #7
  call void @llvm.lifetime.start.p0(i64 8, ptr %16) #7
  call void @llvm.lifetime.start.p0(i64 8, ptr %17) #7
  %18 = getelementptr inbounds [32 x i8], ptr %15, i64 0, i64 0
  %19 = load ptr, ptr %11, align 8
  %20 = load ptr, ptr %12, align 8
  %21 = call i32 @crypto_core_hchacha20(ptr noundef %18, ptr noundef %19, ptr noundef %20, ptr noundef null)
  %22 = load ptr, ptr %7, align 8
  %23 = ptrtoint ptr %22 to i64
  %24 = load ptr, ptr %9, align 8
  %25 = ptrtoint ptr %24 to i64
  %26 = icmp ugt i64 %23, %25
  br i1 %26, label %27, label %35

27:                                               ; preds = %6
  %28 = load ptr, ptr %7, align 8
  %29 = ptrtoint ptr %28 to i64
  %30 = load ptr, ptr %9, align 8
  %31 = ptrtoint ptr %30 to i64
  %32 = sub i64 %29, %31
  %33 = load i64, ptr %10, align 8
  %34 = icmp ult i64 %32, %33
  br i1 %34, label %49, label %35

35:                                               ; preds = %27, %6
  %36 = load ptr, ptr %9, align 8
  %37 = ptrtoint ptr %36 to i64
  %38 = load ptr, ptr %7, align 8
  %39 = ptrtoint ptr %38 to i64
  %40 = icmp ugt i64 %37, %39
  br i1 %40, label %41, label %55

41:                                               ; preds = %35
  %42 = load ptr, ptr %9, align 8
  %43 = ptrtoint ptr %42 to i64
  %44 = load ptr, ptr %7, align 8
  %45 = ptrtoint ptr %44 to i64
  %46 = sub i64 %43, %45
  %47 = load i64, ptr %10, align 8
  %48 = icmp ult i64 %46, %47
  br i1 %48, label %49, label %55

49:                                               ; preds = %41, %27
  %50 = load ptr, ptr %7, align 8
  %51 = load ptr, ptr %9, align 8
  %52 = load i64, ptr %10, align 8
  %53 = call ptr @memmove.inline(ptr noundef %50, ptr noundef %51, i64 noundef %52) #7
  %54 = load ptr, ptr %7, align 8
  store ptr %54, ptr %9, align 8
  br label %55

55:                                               ; preds = %49, %41, %35
  %56 = getelementptr inbounds [64 x i8], ptr %14, i64 0, i64 0
  %57 = call ptr @memset.inline(ptr noundef %56, i32 noundef 0, i64 noundef 32) #7
  %58 = load i64, ptr %10, align 8
  store i64 %58, ptr %17, align 8
  %59 = load i64, ptr %17, align 8
  %60 = icmp ugt i64 %59, 32
  br i1 %60, label %61, label %62

61:                                               ; preds = %55
  store i64 32, ptr %17, align 8
  br label %62

62:                                               ; preds = %61, %55
  store i64 0, ptr %16, align 8
  br label %63

63:                                               ; preds = %75, %62
  %64 = load i64, ptr %16, align 8
  %65 = load i64, ptr %17, align 8
  %66 = icmp ult i64 %64, %65
  br i1 %66, label %67, label %78

67:                                               ; preds = %63
  %68 = load ptr, ptr %9, align 8
  %69 = load i64, ptr %16, align 8
  %70 = getelementptr i8, ptr %68, i64 %69
  %71 = load i8, ptr %70, align 1
  %72 = load i64, ptr %16, align 8
  %73 = add i64 %72, 32
  %74 = getelementptr [64 x i8], ptr %14, i64 0, i64 %73
  store i8 %71, ptr %74, align 1
  br label %75

75:                                               ; preds = %67
  %76 = load i64, ptr %16, align 8
  %77 = add i64 %76, 1
  store i64 %77, ptr %16, align 8
  br label %63, !llvm.loop !4

78:                                               ; preds = %63
  %79 = getelementptr inbounds [64 x i8], ptr %14, i64 0, i64 0
  %80 = getelementptr inbounds [64 x i8], ptr %14, i64 0, i64 0
  %81 = load i64, ptr %17, align 8
  %82 = add i64 %81, 32
  %83 = load ptr, ptr %11, align 8
  %84 = getelementptr i8, ptr %83, i64 16
  %85 = getelementptr inbounds [32 x i8], ptr %15, i64 0, i64 0
  %86 = call i32 @crypto_stream_chacha20_xor(ptr noundef %79, ptr noundef %80, i64 noundef %82, ptr noundef %84, ptr noundef %85)
  %87 = getelementptr inbounds [64 x i8], ptr %14, i64 0, i64 0
  %88 = call i32 @crypto_onetimeauth_poly1305_init(ptr noundef %13, ptr noundef %87)
  store i64 0, ptr %16, align 8
  br label %89

89:                                               ; preds = %101, %78
  %90 = load i64, ptr %16, align 8
  %91 = load i64, ptr %17, align 8
  %92 = icmp ult i64 %90, %91
  br i1 %92, label %93, label %104

93:                                               ; preds = %89
  %94 = load i64, ptr %16, align 8
  %95 = add i64 32, %94
  %96 = getelementptr [64 x i8], ptr %14, i64 0, i64 %95
  %97 = load i8, ptr %96, align 1
  %98 = load ptr, ptr %7, align 8
  %99 = load i64, ptr %16, align 8
  %100 = getelementptr i8, ptr %98, i64 %99
  store i8 %97, ptr %100, align 1
  br label %101

101:                                              ; preds = %93
  %102 = load i64, ptr %16, align 8
  %103 = add i64 %102, 1
  store i64 %103, ptr %16, align 8
  br label %89, !llvm.loop !6

104:                                              ; preds = %89
  %105 = getelementptr inbounds [64 x i8], ptr %14, i64 0, i64 0
  call void @sodium_memzero(ptr noundef %105, i64 noundef 64)
  %106 = load i64, ptr %10, align 8
  %107 = load i64, ptr %17, align 8
  %108 = icmp ugt i64 %106, %107
  br i1 %108, label %109, label %123

109:                                              ; preds = %104
  %110 = load ptr, ptr %7, align 8
  %111 = load i64, ptr %17, align 8
  %112 = getelementptr i8, ptr %110, i64 %111
  %113 = load ptr, ptr %9, align 8
  %114 = load i64, ptr %17, align 8
  %115 = getelementptr i8, ptr %113, i64 %114
  %116 = load i64, ptr %10, align 8
  %117 = load i64, ptr %17, align 8
  %118 = sub i64 %116, %117
  %119 = load ptr, ptr %11, align 8
  %120 = getelementptr i8, ptr %119, i64 16
  %121 = getelementptr inbounds [32 x i8], ptr %15, i64 0, i64 0
  %122 = call i32 @crypto_stream_chacha20_xor_ic(ptr noundef %112, ptr noundef %115, i64 noundef %118, ptr noundef %120, i64 noundef 1, ptr noundef %121)
  br label %123

123:                                              ; preds = %109, %104
  %124 = getelementptr inbounds [32 x i8], ptr %15, i64 0, i64 0
  call void @sodium_memzero(ptr noundef %124, i64 noundef 32)
  %125 = load ptr, ptr %7, align 8
  %126 = load i64, ptr %10, align 8
  %127 = call i32 @crypto_onetimeauth_poly1305_update(ptr noundef %13, ptr noundef %125, i64 noundef %126)
  %128 = load ptr, ptr %8, align 8
  %129 = call i32 @crypto_onetimeauth_poly1305_final(ptr noundef %13, ptr noundef %128)
  call void @sodium_memzero(ptr noundef %13, i64 noundef 256)
  call void @llvm.lifetime.end.p0(i64 8, ptr %17) #7
  call void @llvm.lifetime.end.p0(i64 8, ptr %16) #7
  call void @llvm.lifetime.end.p0(i64 32, ptr %15) #7
  call void @llvm.lifetime.end.p0(i64 64, ptr %14) #7
  call void @llvm.lifetime.end.p0(i64 256, ptr %13) #7
  ret i32 0
}