; Function Attrs: nounwind ssp uwtable
define dso_local noundef i32 @crypto_secretbox_xchacha20poly1305_detached(ptr noundef nonnull %0, ptr noundef nonnull %1, ptr noundef %2, i64 noundef %3, ptr noundef nonnull %4, ptr noundef nonnull %5) local_unnamed_addr #0 {
  %7 = alloca %struct.crypto_onetimeauth_poly1305_state, align 16
  %8 = alloca [64 x i8], align 16
  %9 = alloca [32 x i8], align 16
  call void @llvm.lifetime.start.p0(i64 256, ptr nonnull %7) #8
  call void @llvm.lifetime.start.p0(i64 64, ptr nonnull %8) #8
  call void @llvm.lifetime.start.p0(i64 32, ptr nonnull %9) #8
  %10 = call i32 @crypto_core_hchacha20(ptr noundef nonnull %9, ptr noundef nonnull %4, ptr noundef nonnull %5, ptr noundef null) #8
  %11 = ptrtoint ptr %0 to i64
  %12 = ptrtoint ptr %2 to i64
  %13 = icmp ugt ptr %0, %2
  %14 = sub i64 %11, %12
  %15 = icmp ult i64 %14, %3
  %or.cond = and i1 %13, %15
  br i1 %or.cond, label %.thread, label %16

16:                                               ; preds = %6
  %17 = icmp ugt ptr %2, %0
  %18 = sub i64 %12, %11
  %19 = icmp ult i64 %18, %3
  %or.cond51 = and i1 %17, %19
  br i1 %or.cond51, label %.thread, label %21

.thread:                                          ; preds = %6, %16
  call void @llvm.memmove.p0.p0.i64(ptr noundef nonnull align 1 %0, ptr noundef nonnull align 1 %2, i64 noundef %3, i1 noundef false) #8
  call void @llvm.memset.p0.i64(ptr noundef nonnull align 16 dereferenceable(32) %8, i8 noundef 0, i64 noundef 32, i1 noundef false) #8
  %20 = icmp ugt i64 %3, 32
  %spec.store.select60 = call i64 @llvm.umin.i64(i64 %3, i64 32)
  br label %.lr.ph.preheader

21:                                               ; preds = %16
  call void @llvm.memset.p0.i64(ptr noundef nonnull align 16 dereferenceable(32) %8, i8 noundef 0, i64 noundef 32, i1 noundef false) #8
  %22 = icmp ugt i64 %3, 32
  %spec.store.select = call i64 @llvm.umin.i64(i64 %3, i64 32)
  %.not = icmp eq i64 %3, 0
  br i1 %.not, label %._crit_edge, label %.lr.ph.preheader

.lr.ph.preheader:                                 ; preds = %.thread, %21
  %spec.store.select64 = phi i64 [ %spec.store.select60, %.thread ], [ %spec.store.select, %21 ]
  %23 = phi i1 [ %20, %.thread ], [ %22, %21 ]
  %.04362 = phi ptr [ %0, %.thread ], [ %2, %21 ]
  %scevgep = getelementptr inbounds nuw i8, ptr %8, i64 32
  call void @llvm.memcpy.p0.p0.i64(ptr nonnull align 16 %scevgep, ptr align 1 %.04362, i64 %spec.store.select64, i1 false)
  br label %._crit_edge

._crit_edge:                                      ; preds = %.lr.ph.preheader, %21
  %.not67 = phi i1 [ false, %.lr.ph.preheader ], [ true, %21 ]
  %spec.store.select65 = phi i64 [ %spec.store.select64, %.lr.ph.preheader ], [ %spec.store.select, %21 ]
  %24 = phi i1 [ %23, %.lr.ph.preheader ], [ %22, %21 ]
  %.04363 = phi ptr [ %.04362, %.lr.ph.preheader ], [ %2, %21 ]
  %25 = add nuw nsw i64 %spec.store.select65, 32
  %26 = getelementptr i8, ptr %4, i64 16
  %27 = call i32 @crypto_stream_chacha20_xor(ptr noundef nonnull %8, ptr noundef nonnull %8, i64 noundef %25, ptr noundef %26, ptr noundef nonnull %9) #8
  %28 = call i32 @crypto_onetimeauth_poly1305_init(ptr noundef nonnull %7, ptr noundef nonnull %8) #8
  br i1 %.not67, label %._crit_edge56, label %.lr.ph55.preheader

.lr.ph55.preheader:                               ; preds = %._crit_edge
  %scevgep58 = getelementptr inbounds nuw i8, ptr %8, i64 32
  call void @llvm.memcpy.p0.p0.i64(ptr nonnull align 1 %0, ptr nonnull align 16 %scevgep58, i64 %spec.store.select65, i1 false)
  br label %._crit_edge56

._crit_edge56:                                    ; preds = %.lr.ph55.preheader, %._crit_edge
  call void @sodium_memzero(ptr noundef nonnull %8, i64 noundef 64) #8
  br i1 %24, label %29, label %34

29:                                               ; preds = %._crit_edge56
  %30 = getelementptr i8, ptr %0, i64 %spec.store.select65
  %31 = getelementptr i8, ptr %.04363, i64 %spec.store.select65
  %32 = sub nuw i64 %3, %spec.store.select65
  %33 = call i32 @crypto_stream_chacha20_xor_ic(ptr noundef %30, ptr noundef %31, i64 noundef %32, ptr noundef %26, i64 noundef 1, ptr noundef nonnull %9) #8
  br label %34

34:                                               ; preds = %29, %._crit_edge56
  call void @sodium_memzero(ptr noundef nonnull %9, i64 noundef 32) #8
  %35 = call i32 @crypto_onetimeauth_poly1305_update(ptr noundef nonnull %7, ptr noundef nonnull %0, i64 noundef %3) #8
  %36 = call i32 @crypto_onetimeauth_poly1305_final(ptr noundef nonnull %7, ptr noundef nonnull %1) #8
  call void @sodium_memzero(ptr noundef nonnull %7, i64 noundef 256) #8
  call void @llvm.lifetime.end.p0(i64 32, ptr nonnull %9) #8
  call void @llvm.lifetime.end.p0(i64 64, ptr nonnull %8) #8
  call void @llvm.lifetime.end.p0(i64 256, ptr nonnull %7) #8
  ret i32 0
}